; Function Attrs: mustprogress sspstrong uwtable
define void @_ZN3tbb6detail2r122fill_core_type_indicesEPil(ptr noundef %0, i64 noundef %1) local_unnamed_addr #1 {
  tail call void @_ZN3tbb6detail2r115system_topology10initializeEv()
  %3 = load ptr, ptr @_ZN3tbb6detail2r115system_topology12_GLOBAL__N_118core_types_indexesE, align 8, !tbaa !136
  %4 = load i32, ptr @_ZN3tbb6detail2r115system_topology12_GLOBAL__N_116core_types_countE, align 4, !tbaa !102
  %5 = sext i32 %4 to i64
  %6 = shl nsw i64 %5, 2
  tail call void @llvm.memcpy.p0.p0.i64(ptr noundef nonnull align 1 %0, ptr noundef nonnull align 1 %3, i64 noundef range(i64 -8589934592, 8589934589) %6, i1 noundef false) #8
  ret void
}